; Function Attrs: mustprogress uwtable
define noundef i64 @_ZNK6google8protobuf9FieldMask12ByteSizeLongEv(ptr noundef nonnull align 8 dereferenceable(48) %this) unnamed_addr #3 align 2 personality ptr @__gxx_personality_v0 {
entry:
  %0 = getelementptr inbounds i8, ptr %this, i64 16
  %current_size_.i.i = getelementptr inbounds i8, ptr %this, i64 24
  %1 = load i32, ptr %current_size_.i.i, align 8
  %conv.i = zext i32 %1 to i64
  %cmp6 = icmp sgt i32 %1, 0
  br i1 %cmp6, label %for.body, label %for.end

for.body:                                         ; preds = %entry, %for.body
  %indvars.iv = phi i64 [ %indvars.iv.next, %for.body ], [ 0, %entry ]
  %total_size.08 = phi i64 [ %add9, %for.body ], [ %conv.i, %entry ]
  %2 = load ptr, ptr %0, align 8
  %3 = ptrtoint ptr %2 to i64
  %and.i.i.i.i.i = and i64 %3, 1
  %cmp.i.i.i.i.i = icmp eq i64 %and.i.i.i.i.i, 0
  %sub.i.i.i.i.i = add i64 %3, -1
  %4 = inttoptr i64 %sub.i.i.i.i.i to ptr
  %elements.i.i.i.i = getelementptr inbounds i8, ptr %4, i64 8
  %arrayidx.i.i.i.i = getelementptr inbounds [268435454 x ptr], ptr %elements.i.i.i.i, i64 0, i64 %indvars.iv
  %retval.0.i.i.i.i = select i1 %cmp.i.i.i.i.i, ptr %0, ptr %arrayidx.i.i.i.i
  %5 = load ptr, ptr %retval.0.i.i.i.i, align 8
  %call.i = tail call noundef i64 @_ZNKSt7__cxx1112basic_stringIcSt11char_traitsIcESaIcEE4sizeEv(ptr noundef nonnull align 8 dereferenceable(32) %5) #14
  %conv.i.i = trunc i64 %call.i to i32
  %or.i.i.i = or i32 %conv.i.i, 1
  %6 = tail call noundef i32 @llvm.ctlz.i32(i32 %or.i.i.i, i1 true), !range !8
  %sub.i.i.i = xor i32 %6, 31
  %mul.i.i.i = mul nuw nsw i32 %sub.i.i.i, 9
  %add.i.i.i = add nuw nsw i32 %mul.i.i.i, 73
  %div1.i.i.i = lshr i32 %add.i.i.i, 6
  %conv.i.i.i = zext nneg i32 %div1.i.i.i to i64
  %add.i.i = add i64 %call.i, %total_size.08
  %add9 = add i64 %add.i.i, %conv.i.i.i
  %indvars.iv.next = add nuw nsw i64 %indvars.iv, 1
  %exitcond.not = icmp eq i64 %indvars.iv.next, %conv.i
  br i1 %exitcond.not, label %for.end, label %for.body, !llvm.loop !9

for.end:                                          ; preds = %for.body, %entry
  %total_size.0.lcssa = phi i64 [ %conv.i, %entry ], [ %add9, %for.body ]
  %_cached_size_ = getelementptr inbounds i8, ptr %this, i64 40
  %call10 = tail call noundef i64 @_ZNK6google8protobuf7Message29MaybeComputeUnknownFieldsSizeEmPNS0_8internal10CachedSizeE(ptr noundef nonnull align 8 dereferenceable(16) %this, i64 noundef %total_size.0.lcssa, ptr noundef nonnull %_cached_size_)
  ret i64 %call10
}